; Function Attrs: mustprogress uwtable
define void @_ZNK3gmx26AnalysisNeighborhoodSearch19startSelfPairSearchEv(ptr dead_on_unwind noalias writable sret(%"class.gmx::AnalysisNeighborhoodPairSearch") align 8 %0, ptr noundef nonnull readonly align 8 captures(none) dereferenceable(16) %1) local_unnamed_addr #16 align 2 personality ptr @__gxx_personality_v0 {
  %3 = alloca %"class.std::shared_ptr", align 8
  %4 = load ptr, ptr %1, align 8, !tbaa !187
  %.not = icmp eq ptr %4, null
  br i1 %.not, label %5, label %6

5:                                                ; preds = %2
  tail call void @_ZN3gmx8internal13assertHandlerEPKcS2_S2_S2_i(ptr noundef nonnull @.str.19, ptr noundef nonnull @.str.20, ptr noundef nonnull @"__PRETTY_FUNCTION__._ZZNK3gmx26AnalysisNeighborhoodSearch19startSelfPairSearchEvENK3$_0clEv", ptr noundef nonnull @.str.4, i32 noundef 1399) #40
  unreachable

6:                                                ; preds = %2
  call void @llvm.lifetime.start.p0(i64 16, ptr nonnull %3) #36
  call void @_ZN3gmx8internal30AnalysisNeighborhoodSearchImpl13getPairSearchEv(ptr dead_on_unwind nonnull writable sret(%"class.std::shared_ptr") align 8 %3, ptr noundef nonnull align 8 dereferenceable(624) %4)
  %7 = load ptr, ptr %3, align 8, !tbaa !67
  %8 = getelementptr inbounds nuw i8, ptr %7, i64 8
  store i8 1, ptr %8, align 8, !tbaa !73
  %9 = load ptr, ptr %7, align 8, !tbaa !86
  %10 = getelementptr inbounds nuw i8, ptr %9, i64 16
  %11 = load i32, ptr %10, align 8, !tbaa !37
  %12 = getelementptr inbounds nuw i8, ptr %7, i64 12
  store i32 %11, ptr %12, align 4, !tbaa !180
  %13 = getelementptr inbounds nuw i8, ptr %9, i64 24
  %14 = load ptr, ptr %13, align 8, !tbaa !149
  %15 = getelementptr inbounds nuw i8, ptr %7, i64 16
  store ptr %14, ptr %15, align 8, !tbaa !90
  %16 = getelementptr inbounds nuw i8, ptr %9, i64 32
  %17 = load ptr, ptr %16, align 8, !tbaa !152
  %18 = getelementptr inbounds nuw i8, ptr %7, i64 24
  store ptr %17, ptr %18, align 8, !tbaa !96
  %19 = getelementptr inbounds nuw i8, ptr %9, i64 40
  %20 = load ptr, ptr %19, align 8, !tbaa !147
  %21 = getelementptr inbounds nuw i8, ptr %7, i64 32
  store ptr %20, ptr %21, align 8, !tbaa !85
  %22 = getelementptr inbounds nuw i8, ptr %9, i64 48
  %23 = load ptr, ptr %22, align 8, !tbaa !95
  %24 = icmp eq ptr %23, null
  %25 = icmp eq ptr %20, null
  %or.cond.i = select i1 %24, i1 true, i1 %25
  br i1 %or.cond.i, label %27, label %26

26:                                               ; preds = %6
  invoke void @_ZN3gmx8internal13assertHandlerEPKcS2_S2_S2_i(ptr noundef nonnull @.str.13, ptr noundef nonnull @.str.14, ptr noundef nonnull @"__PRETTY_FUNCTION__._ZZN3gmx8internal34AnalysisNeighborhoodPairSearchImpl15startSelfSearchEvENK3$_0clEv", ptr noundef nonnull @.str.4, i32 noundef 1070) #40
          to label %.noexc unwind label %52

.noexc:                                           ; preds = %26
  unreachable

27:                                               ; preds = %6
  call void @_ZN3gmx8internal34AnalysisNeighborhoodPairSearchImpl5resetEi(ptr noundef nonnull align 8 dereferenceable(140) %7, i32 noundef 0)
  invoke void @_ZN3gmx30AnalysisNeighborhoodPairSearchC1ERKSt10shared_ptrINS_8internal34AnalysisNeighborhoodPairSearchImplEE(ptr noundef nonnull align 8 dereferenceable(16) %0, ptr noundef nonnull align 8 dereferenceable(16) %3)
          to label %28 unwind label %52

28:                                               ; preds = %27
  %29 = getelementptr inbounds nuw i8, ptr %3, i64 8
  %30 = load ptr, ptr %29, align 8, !tbaa !40
  %.not.i.i = icmp eq ptr %30, null
  br i1 %.not.i.i, label %_ZNSt12__shared_ptrIN3gmx8internal34AnalysisNeighborhoodPairSearchImplELN9__gnu_cxx12_Lock_policyE2EED2Ev.exit, label %31

31:                                               ; preds = %28
  %32 = getelementptr inbounds nuw i8, ptr %30, i64 8
  %33 = load atomic i64, ptr %32 acquire, align 8
  %34 = icmp eq i64 %33, 4294967297
  %35 = trunc i64 %33 to i32
  br i1 %34, label %36, label %44

36:                                               ; preds = %31
  store i32 0, ptr %32, align 8, !tbaa !43
  %37 = getelementptr inbounds nuw i8, ptr %30, i64 12
  store i32 0, ptr %37, align 4, !tbaa !45
  %38 = load ptr, ptr %30, align 8, !tbaa !46
  %39 = getelementptr inbounds nuw i8, ptr %38, i64 16
  %40 = load ptr, ptr %39, align 8
  call void %40(ptr noundef nonnull align 8 dereferenceable(16) %30) #36
  %41 = load ptr, ptr %30, align 8, !tbaa !46
  %42 = getelementptr inbounds nuw i8, ptr %41, i64 24
  %43 = load ptr, ptr %42, align 8
  call void %43(ptr noundef nonnull align 8 dereferenceable(16) %30) #36
  br label %_ZNSt12__shared_ptrIN3gmx8internal34AnalysisNeighborhoodPairSearchImplELN9__gnu_cxx12_Lock_policyE2EED2Ev.exit

44:                                               ; preds = %31
  %45 = load i8, ptr @__libc_single_threaded, align 1, !tbaa !48
  %.not.i.i.i = icmp eq i8 %45, 0
  br i1 %.not.i.i.i, label %48, label %46

46:                                               ; preds = %44
  %47 = add nsw i32 %35, -1
  store i32 %47, ptr %32, align 4, !tbaa !39
  br label %_ZN9__gnu_cxx27__exchange_and_add_dispatchEPii.exit.i.i.i

48:                                               ; preds = %44
  %49 = atomicrmw volatile add ptr %32, i32 -1 acq_rel, align 4
  br label %_ZN9__gnu_cxx27__exchange_and_add_dispatchEPii.exit.i.i.i

_ZN9__gnu_cxx27__exchange_and_add_dispatchEPii.exit.i.i.i: ; preds = %48, %46
  %.0.i.i.i.i = phi i32 [ %35, %46 ], [ %49, %48 ]
  %50 = icmp eq i32 %.0.i.i.i.i, 1
  br i1 %50, label %51, label %_ZNSt12__shared_ptrIN3gmx8internal34AnalysisNeighborhoodPairSearchImplELN9__gnu_cxx12_Lock_policyE2EED2Ev.exit, !prof !49

51:                                               ; preds = %_ZN9__gnu_cxx27__exchange_and_add_dispatchEPii.exit.i.i.i
  call void @_ZNSt16_Sp_counted_baseILN9__gnu_cxx12_Lock_policyE2EE24_M_release_last_use_coldEv(ptr noundef nonnull align 8 dereferenceable(16) %30) #36
  br label %_ZNSt12__shared_ptrIN3gmx8internal34AnalysisNeighborhoodPairSearchImplELN9__gnu_cxx12_Lock_policyE2EED2Ev.exit

_ZNSt12__shared_ptrIN3gmx8internal34AnalysisNeighborhoodPairSearchImplELN9__gnu_cxx12_Lock_policyE2EED2Ev.exit: ; preds = %28, %36, %_ZN9__gnu_cxx27__exchange_and_add_dispatchEPii.exit.i.i.i, %51
  call void @llvm.lifetime.end.p0(i64 16, ptr nonnull %3) #36
  ret void

52:                                               ; preds = %26, %27
  %53 = landingpad { ptr, i32 }
          cleanup
  call void @_ZNSt12__shared_ptrIN3gmx8internal34AnalysisNeighborhoodPairSearchImplELN9__gnu_cxx12_Lock_policyE2EED2Ev(ptr noundef nonnull align 8 dereferenceable(16) %3) #36
  call void @llvm.lifetime.end.p0(i64 16, ptr nonnull %3) #36
  resume { ptr, i32 } %53
}